; ModuleID = '19/62.c'
source_filename = "19/62.c"
target datalayout = "e-m:e-p270:32:32-p271:32:32-p272:64:64-i64:64-f80:128-n8:16:32:64-S128"
target triple = "x86_64-pc-linux-gnu"

@.str = private unnamed_addr constant [3 x i8] c"%s\00", align 1

; Function Attrs: noinline nounwind uwtable
define dso_local i32 @main() #0 {
  %1 = alloca i32, align 4
  %2 = alloca [100 x i8], align 16
  %3 = alloca [100 x i8], align 16
  %4 = alloca [100 x i8], align 16
  %5 = alloca [200 x i8], align 16
  %6 = alloca i32, align 4
  %7 = alloca i32, align 4
  %8 = alloca i32, align 4
  %9 = alloca i32, align 4
  %10 = alloca i32, align 4
  %11 = alloca i32, align 4
  %12 = alloca i32, align 4
  store i32 0, i32* %1, align 4
  store i32 0, i32* %8, align 4
  store i32 0, i32* %11, align 4
  %13 = getelementptr inbounds [100 x i8], [100 x i8]* %2, i64 0, i64 0
  %14 = call i32 (i8*, ...) bitcast (i32 (...)* @gets to i32 (i8*, ...)*)(i8* %13)
  %15 = getelementptr inbounds [100 x i8], [100 x i8]* %3, i64 0, i64 0
  %16 = call i32 (i8*, ...) bitcast (i32 (...)* @gets to i32 (i8*, ...)*)(i8* %15)
  %17 = getelementptr inbounds [100 x i8], [100 x i8]* %4, i64 0, i64 0
  %18 = call i32 (i8*, ...) bitcast (i32 (...)* @gets to i32 (i8*, ...)*)(i8* %17)
  %19 = getelementptr inbounds [100 x i8], [100 x i8]* %3, i64 0, i64 0
  %20 = call i64 @strlen(i8* %19) #3
  %21 = trunc i64 %20 to i32
  store i32 %21, i32* %6, align 4
  %22 = getelementptr inbounds [100 x i8], [100 x i8]* %4, i64 0, i64 0
  %23 = call i64 @strlen(i8* %22) #3
  %24 = trunc i64 %23 to i32
  store i32 %24, i32* %7, align 4
  br label %25

25:                                               ; preds = %162, %0
  %26 = load i32, i32* %8, align 4
  %27 = icmp slt i32 %26, 100
  br i1 %27, label %28, label %163

28:                                               ; preds = %25
  store i32 0, i32* %12, align 4
  store i32 0, i32* %10, align 4
  br label %29

29:                                               ; preds = %52, %28
  %30 = load i32, i32* %10, align 4
  %31 = load i32, i32* %6, align 4
  %32 = icmp slt i32 %30, %31
  br i1 %32, label %33, label %55

33:                                               ; preds = %29
  %34 = load i32, i32* %8, align 4
  %35 = load i32, i32* %10, align 4
  %36 = add nsw i32 %34, %35
  %37 = sext i32 %36 to i64
  %38 = getelementptr inbounds [100 x i8], [100 x i8]* %2, i64 0, i64 %37
  %39 = load i8, i8* %38, align 1
  %40 = sext i8 %39 to i32
  %41 = load i32, i32* %10, align 4
  %42 = sext i32 %41 to i64
  %43 = getelementptr inbounds [100 x i8], [100 x i8]* %3, i64 0, i64 %42
  %44 = load i8, i8* %43, align 1
  %45 = sext i8 %44 to i32
  %46 = icmp eq i32 %40, %45
  br i1 %46, label %47, label %50

47:                                               ; preds = %33
  %48 = load i32, i32* %12, align 4
  %49 = add nsw i32 %48, 1
  store i32 %49, i32* %12, align 4
  br label %51

50:                                               ; preds = %33
  store i32 0, i32* %12, align 4
  br label %51

51:                                               ; preds = %50, %47
  br label %52

52:                                               ; preds = %51
  %53 = load i32, i32* %10, align 4
  %54 = add nsw i32 %53, 1
  store i32 %54, i32* %10, align 4
  br label %29

55:                                               ; preds = %29
  %56 = load i32, i32* %8, align 4
  %57 = icmp eq i32 %56, 0
  br i1 %57, label %58, label %106

58:                                               ; preds = %55
  %59 = load i32, i32* %12, align 4
  %60 = load i32, i32* %6, align 4
  %61 = icmp eq i32 %59, %60
  br i1 %61, label %62, label %93

62:                                               ; preds = %58
  %63 = load i32, i32* %8, align 4
  %64 = load i32, i32* %6, align 4
  %65 = add nsw i32 %63, %64
  %66 = sext i32 %65 to i64
  %67 = getelementptr inbounds [100 x i8], [100 x i8]* %2, i64 0, i64 %66
  %68 = load i8, i8* %67, align 1
  %69 = sext i8 %68 to i32
  %70 = icmp eq i32 %69, 32
  br i1 %70, label %71, label %93

71:                                               ; preds = %62
  store i32 0, i32* %9, align 4
  br label %72

72:                                               ; preds = %86, %71
  %73 = load i32, i32* %9, align 4
  %74 = load i32, i32* %7, align 4
  %75 = icmp slt i32 %73, %74
  br i1 %75, label %76, label %89

76:                                               ; preds = %72
  %77 = load i32, i32* %9, align 4
  %78 = sext i32 %77 to i64
  %79 = getelementptr inbounds [100 x i8], [100 x i8]* %4, i64 0, i64 %78
  %80 = load i8, i8* %79, align 1
  %81 = load i32, i32* %11, align 4
  %82 = sext i32 %81 to i64
  %83 = getelementptr inbounds [200 x i8], [200 x i8]* %5, i64 0, i64 %82
  store i8 %80, i8* %83, align 1
  %84 = load i32, i32* %11, align 4
  %85 = add nsw i32 %84, 1
  store i32 %85, i32* %11, align 4
  br label %86

86:                                               ; preds = %76
  %87 = load i32, i32* %9, align 4
  %88 = add nsw i32 %87, 1
  store i32 %88, i32* %9, align 4
  br label %72

89:                                               ; preds = %72
  %90 = load i32, i32* %6, align 4
  %91 = load i32, i32* %8, align 4
  %92 = add nsw i32 %91, %90
  store i32 %92, i32* %8, align 4
  br label %105

93:                                               ; preds = %62, %58
  %94 = load i32, i32* %8, align 4
  %95 = sext i32 %94 to i64
  %96 = getelementptr inbounds [100 x i8], [100 x i8]* %2, i64 0, i64 %95
  %97 = load i8, i8* %96, align 1
  %98 = load i32, i32* %11, align 4
  %99 = sext i32 %98 to i64
  %100 = getelementptr inbounds [200 x i8], [200 x i8]* %5, i64 0, i64 %99
  store i8 %97, i8* %100, align 1
  %101 = load i32, i32* %11, align 4
  %102 = add nsw i32 %101, 1
  store i32 %102, i32* %11, align 4
  %103 = load i32, i32* %8, align 4
  %104 = add nsw i32 %103, 1
  store i32 %104, i32* %8, align 4
  br label %105

105:                                              ; preds = %93, %89
  br label %162

106:                                              ; preds = %55
  %107 = load i32, i32* %12, align 4
  %108 = load i32, i32* %6, align 4
  %109 = icmp eq i32 %107, %108
  br i1 %109, label %110, label %149

110:                                              ; preds = %106
  %111 = load i32, i32* %8, align 4
  %112 = load i32, i32* %6, align 4
  %113 = add nsw i32 %111, %112
  %114 = sext i32 %113 to i64
  %115 = getelementptr inbounds [100 x i8], [100 x i8]* %2, i64 0, i64 %114
  %116 = load i8, i8* %115, align 1
  %117 = sext i8 %116 to i32
  %118 = icmp eq i32 %117, 32
  br i1 %118, label %119, label %149

119:                                              ; preds = %110
  %120 = load i32, i32* %8, align 4
  %121 = sub nsw i32 %120, 1
  %122 = sext i32 %121 to i64
  %123 = getelementptr inbounds [100 x i8], [100 x i8]* %2, i64 0, i64 %122
  %124 = load i8, i8* %123, align 1
  %125 = sext i8 %124 to i32
  %126 = icmp eq i32 %125, 32
  br i1 %126, label %127, label %149

127:                                              ; preds = %119
  store i32 0, i32* %9, align 4
  br label %128

128:                                              ; preds = %142, %127
  %129 = load i32, i32* %9, align 4
  %130 = load i32, i32* %7, align 4
  %131 = icmp slt i32 %129, %130
  br i1 %131, label %132, label %145

132:                                              ; preds = %128
  %133 = load i32, i32* %9, align 4
  %134 = sext i32 %133 to i64
  %135 = getelementptr inbounds [100 x i8], [100 x i8]* %4, i64 0, i64 %134
  %136 = load i8, i8* %135, align 1
  %137 = load i32, i32* %11, align 4
  %138 = sext i32 %137 to i64
  %139 = getelementptr inbounds [200 x i8], [200 x i8]* %5, i64 0, i64 %138
  store i8 %136, i8* %139, align 1
  %140 = load i32, i32* %11, align 4
  %141 = add nsw i32 %140, 1
  store i32 %141, i32* %11, align 4
  br label %142

142:                                              ; preds = %132
  %143 = load i32, i32* %9, align 4
  %144 = add nsw i32 %143, 1
  store i32 %144, i32* %9, align 4
  br label %128

145:                                              ; preds = %128
  %146 = load i32, i32* %6, align 4
  %147 = load i32, i32* %8, align 4
  %148 = add nsw i32 %147, %146
  store i32 %148, i32* %8, align 4
  br label %161

149:                                              ; preds = %119, %110, %106
  %150 = load i32, i32* %8, align 4
  %151 = sext i32 %150 to i64
  %152 = getelementptr inbounds [100 x i8], [100 x i8]* %2, i64 0, i64 %151
  %153 = load i8, i8* %152, align 1
  %154 = load i32, i32* %11, align 4
  %155 = sext i32 %154 to i64
  %156 = getelementptr inbounds [200 x i8], [200 x i8]* %5, i64 0, i64 %155
  store i8 %153, i8* %156, align 1
  %157 = load i32, i32* %11, align 4
  %158 = add nsw i32 %157, 1
  store i32 %158, i32* %11, align 4
  %159 = load i32, i32* %8, align 4
  %160 = add nsw i32 %159, 1
  store i32 %160, i32* %8, align 4
  br label %161

161:                                              ; preds = %149, %145
  br label %162

162:                                              ; preds = %161, %105
  br label %25

163:                                              ; preds = %25
  %164 = getelementptr inbounds [200 x i8], [200 x i8]* %5, i64 0, i64 0
  %165 = call i32 (i8*, ...) @printf(i8* getelementptr inbounds ([3 x i8], [3 x i8]* @.str, i64 0, i64 0), i8* %164)
  ret i32 0
}

declare dso_local i32 @gets(...) #1

; Function Attrs: nounwind readonly
declare dso_local i64 @strlen(i8*) #2

declare dso_local i32 @printf(i8*, ...) #1


!llvm.module.flags = !{!0}
!llvm.ident = !{!1}

!0 = !{i32 1, !"wchar_size", i32 4}
!1 = !{!"clang version 10.0.0-4ubuntu1 "}
